
Memory Configuration

Name             Origin             Length             Attributes
*default*        0x0000000000000000 0xffffffffffffffff

Linker script and memory map

                0x0000000000090000                TEXT_ROM = 0x90000
                0x0000000000080000                . = 0x80000
                0x0000000000080000                _text_boot = .

.text.boot      0x0000000000080000       0xe0
 *(.text.boot)
 .text.boot     0x0000000000080000       0xe0 build/boot_s.o
                0x0000000000080000                _start
                0x00000000000800e0                _etext_boot = .
                0x00000000000800e0                _text = .

.text           0x0000000000080800     0x2030
 *(.text)
 .text          0x0000000000080800     0x1284 build/printk_c.o
                0x0000000000080c58                myprintf
                0x000000000008187c                init_printk_done
                0x0000000000081904                printk
 .text          0x0000000000081a84       0xa8 build/string_c.o
                0x0000000000081a84                strlen
                0x0000000000081ac8                memcpy
 .text          0x0000000000081b2c      0x248 build/pl_uart_c.o
                0x0000000000081b2c                uart_send
                0x0000000000081b7c                putchar
                0x0000000000081b9c                uart_recv
                0x0000000000081be4                uart_send_string
                0x0000000000081c3c                uart_init
 .text          0x0000000000081d74       0x74 build/kernel_c.o
                0x0000000000081d74                bad_mode
                0x0000000000081da0                kernel_main
 .text          0x0000000000081de8       0xe8 build/early_uart_s.o
                0x0000000000081de8                __init_uart
                0x0000000000081e4c                put_uart
                0x0000000000081e6c                put_string_uart
 *fill*         0x0000000000081ed0      0x130 
 .text          0x0000000000082000      0x820 build/entry_s.o
                0x0000000000082000                vectors
                0x0000000000082809                assert_alignment
 .text          0x0000000000082820       0x10 build/mm_s.o
                0x0000000000082820                memzero
 .text          0x0000000000082830        0x0 build/boot_s.o
 .text          0x0000000000082830        0x0 build/asm_test_s.o
                0x0000000000082830                _etext = .
                0x0000000000082830                _rodata = .

.iplt           0x0000000000082830        0x0
 .iplt          0x0000000000082830        0x0 build/printk_c.o

.rodata         0x0000000000082830      0x155
 *(.rodata)
 .rodata        0x0000000000082830       0x57 build/printk_c.o
 *fill*         0x0000000000082887        0x1 
 .rodata        0x0000000000082888       0xc0 build/kernel_c.o
 .rodata        0x0000000000082948       0x3d build/boot_s.o
                0x0000000000082948                el_string1
                0x0000000000082956                el_string2
                0x0000000000082967                el_string3
                0x0000000000082985                _erodata = .
                0x0000000000082985                _data = .

.rela.dyn       0x0000000000082988        0x0
 .rela.iplt     0x0000000000082988        0x0 build/printk_c.o

.data           0x0000000000082988        0x8
 *(.data)
 .data          0x0000000000082988        0x8 build/printk_c.o
 .data          0x0000000000082990        0x0 build/string_c.o
 .data          0x0000000000082990        0x0 build/pl_uart_c.o
 .data          0x0000000000082990        0x0 build/kernel_c.o
 .data          0x0000000000082990        0x0 build/early_uart_s.o
 .data          0x0000000000082990        0x0 build/entry_s.o
 .data          0x0000000000082990        0x0 build/mm_s.o
 .data          0x0000000000082990        0x0 build/boot_s.o
 .data          0x0000000000082990        0x0 build/asm_test_s.o
                0x0000000000082990                _edata = .

.igot.plt       0x0000000000082990        0x0
 .igot.plt      0x0000000000082990        0x0 build/printk_c.o
                0x0000000000082990                . = ALIGN (0x8)
                0x0000000000082990                _bss = .

.bss            0x0000000000082990    0x20410
 *(.bss*)
 .bss           0x0000000000082990    0x20410 build/printk_c.o
 .bss           0x00000000000a2da0        0x0 build/string_c.o
 .bss           0x00000000000a2da0        0x0 build/pl_uart_c.o
 .bss           0x00000000000a2da0        0x0 build/kernel_c.o
 .bss           0x00000000000a2da0        0x0 build/early_uart_s.o
 .bss           0x00000000000a2da0        0x0 build/entry_s.o
 .bss           0x00000000000a2da0        0x0 build/mm_s.o
 .bss           0x00000000000a2da0        0x0 build/boot_s.o
 .bss           0x00000000000a2da0        0x0 build/asm_test_s.o
                0x00000000000a2da0                _ebss = .
                0x00000000000a3000                . = ALIGN (0x1000)
                0x00000000000a3000                init_pg_dir = .
                0x00000000000a4000                . = (. + 0x1000)
LOAD build/printk_c.o
LOAD build/string_c.o
LOAD build/pl_uart_c.o
LOAD build/kernel_c.o
LOAD build/early_uart_s.o
LOAD build/entry_s.o
LOAD build/mm_s.o
LOAD build/boot_s.o
LOAD build/asm_test_s.o
OUTPUT(build/benos.elf elf64-littleaarch64)

.debug_info     0x0000000000000000      0xb9c
 .debug_info    0x0000000000000000      0x457 build/printk_c.o
 .debug_info    0x0000000000000457       0xfe build/string_c.o
 .debug_info    0x0000000000000555      0x30b build/pl_uart_c.o
 .debug_info    0x0000000000000860      0x1bb build/kernel_c.o
 .debug_info    0x0000000000000a1b       0x65 build/early_uart_s.o
 .debug_info    0x0000000000000a80       0x60 build/entry_s.o
 .debug_info    0x0000000000000ae0       0x5d build/mm_s.o
 .debug_info    0x0000000000000b3d       0x5f build/boot_s.o

.debug_abbrev   0x0000000000000000      0x48f
 .debug_abbrev  0x0000000000000000      0x18b build/printk_c.o
 .debug_abbrev  0x000000000000018b       0xab build/string_c.o
 .debug_abbrev  0x0000000000000236       0xdc build/pl_uart_c.o
 .debug_abbrev  0x0000000000000312      0x12d build/kernel_c.o
 .debug_abbrev  0x000000000000043f       0x14 build/early_uart_s.o
 .debug_abbrev  0x0000000000000453       0x14 build/entry_s.o
 .debug_abbrev  0x0000000000000467       0x14 build/mm_s.o
 .debug_abbrev  0x000000000000047b       0x14 build/boot_s.o

.debug_aranges  0x0000000000000000      0x180
 .debug_aranges
                0x0000000000000000       0x30 build/printk_c.o
 .debug_aranges
                0x0000000000000030       0x30 build/string_c.o
 .debug_aranges
                0x0000000000000060       0x30 build/pl_uart_c.o
 .debug_aranges
                0x0000000000000090       0x30 build/kernel_c.o
 .debug_aranges
                0x00000000000000c0       0x30 build/early_uart_s.o
 .debug_aranges
                0x00000000000000f0       0x30 build/entry_s.o
 .debug_aranges
                0x0000000000000120       0x30 build/mm_s.o
 .debug_aranges
                0x0000000000000150       0x30 build/boot_s.o

.debug_line     0x0000000000000000      0x4d6
 .debug_line    0x0000000000000000      0x22e build/printk_c.o
 .debug_line    0x000000000000022e       0x55 build/string_c.o
 .debug_line    0x0000000000000283       0x80 build/pl_uart_c.o
 .debug_line    0x0000000000000303       0x4e build/kernel_c.o
 .debug_line    0x0000000000000351       0x6c build/early_uart_s.o
 .debug_line    0x00000000000003bd       0x6f build/entry_s.o
 .debug_line    0x000000000000042c       0x3d build/mm_s.o
 .debug_line    0x0000000000000469       0x6d build/boot_s.o

.debug_str      0x0000000000000000      0x2a7
 .debug_str     0x0000000000000000      0x1c2 build/printk_c.o
                                        0x1fd (size before relaxing)
 .debug_str     0x00000000000001c2       0x2d build/string_c.o
                                         0x9e (size before relaxing)
 .debug_str     0x00000000000001ef       0x4e build/pl_uart_c.o
                                         0xbf (size before relaxing)
 .debug_str     0x000000000000023d       0x6a build/kernel_c.o
                                         0xfa (size before relaxing)

.comment        0x0000000000000000       0x24
 .comment       0x0000000000000000       0x24 build/printk_c.o
                                         0x25 (size before relaxing)
 .comment       0x0000000000000024       0x25 build/string_c.o
 .comment       0x0000000000000024       0x25 build/pl_uart_c.o
 .comment       0x0000000000000024       0x25 build/kernel_c.o

.note.GNU-stack
                0x0000000000000000        0x0
 .note.GNU-stack
                0x0000000000000000        0x0 build/printk_c.o
 .note.GNU-stack
                0x0000000000000000        0x0 build/string_c.o
 .note.GNU-stack
                0x0000000000000000        0x0 build/pl_uart_c.o
 .note.GNU-stack
                0x0000000000000000        0x0 build/kernel_c.o

.debug_frame    0x0000000000000000      0x248
 .debug_frame   0x0000000000000000       0xd8 build/printk_c.o
 .debug_frame   0x00000000000000d8       0x50 build/string_c.o
 .debug_frame   0x0000000000000128       0xc0 build/pl_uart_c.o
 .debug_frame   0x00000000000001e8       0x60 build/kernel_c.o
